target datalayout = "e-m:e-p270:32:32-p271:32:32-p272:64:64-i64:64-i128:128-f80:128-n8:16:32:64-S128"
target triple = "x86_64-unknown-linux-gnu"

%"class.llvh::SmallVectorBase" = type { ptr, i32, i32 }
%"class.llvh::SMLoc" = type { ptr }
%"class.hermes::irgen::ESTreeIRGen" = type { ptr, %"class.hermes::IRBuilder", %"class.hermes::IRInstrument", ptr, ptr, ptr, ptr, %"class.hermes::ScopedHashTable", %"class.std::shared_ptr", %"class.hermes::Identifier", %"class.hermes::Identifier", %"class.hermes::Identifier", ptr, ptr, %"class.llvh::DenseMap.9" }
%"class.hermes::IRBuilder" = type { ptr, %"class.llvh::ilist_iterator", ptr, %"class.llvh::SMLoc", ptr }
%"class.llvh::ilist_iterator" = type { ptr }
%"class.hermes::IRInstrument" = type { i8 }
%"class.hermes::ScopedHashTable" = type { %"class.llvh::DenseMap", ptr }
%"class.llvh::DenseMap" = type <{ ptr, i32, i32, i32, [4 x i8] }>
%"class.std::shared_ptr" = type { %"class.std::__shared_ptr" }
%"class.std::__shared_ptr" = type { ptr, %"class.std::__shared_count" }
%"class.std::__shared_count" = type { ptr }
%"class.hermes::Identifier" = type { ptr }
%"class.llvh::DenseMap.9" = type <{ ptr, i32, i32, i32, [4 x i8] }>
%"class.llvh::StringRef" = type { ptr, i64 }
%"class.hermes::irgen::FunctionContext" = type { ptr, ptr, ptr, %"class.hermes::IRBuilder::SaveRestore", %"class.llvh::SmallVector.172", ptr, ptr, ptr, ptr, ptr, %"class.hermes::InternalIdentifierMaker", ptr, ptr, ptr, ptr, %"class.hermes::irgen::EnterBlockScope", %"class.std::optional", %"class.std::optional", %"class.std::optional" }
%"class.hermes::IRBuilder::SaveRestore" = type { ptr, ptr, %"class.llvh::SMLoc" }
%"class.llvh::SmallVector.172" = type { %"class.llvh::SmallVectorImpl.173", %"struct.llvh::SmallVectorStorage.176" }
%"class.llvh::SmallVectorImpl.173" = type { %"class.llvh::SmallVectorTemplateBase.174" }
%"class.llvh::SmallVectorTemplateBase.174" = type { %"class.llvh::SmallVectorTemplateCommon.175" }
%"class.llvh::SmallVectorTemplateCommon.175" = type { %"class.llvh::SmallVectorBase" }
%"struct.llvh::SmallVectorStorage.176" = type { [2 x %"struct.llvh::AlignedCharArrayUnion.177"] }
%"struct.llvh::AlignedCharArrayUnion.177" = type { %"struct.llvh::AlignedCharArray.178" }
%"struct.llvh::AlignedCharArray.178" = type { [24 x i8] }
%"class.hermes::InternalIdentifierMaker" = type { ptr, i64 }
%"class.hermes::irgen::EnterBlockScope" = type { ptr, ptr, ptr, ptr, %"class.hermes::ScopedHashTableScope" }
%"class.hermes::ScopedHashTableScope" = type { i32, ptr, ptr, ptr }
%"class.std::optional" = type { %"struct.std::_Optional_base" }
%"struct.std::_Optional_base" = type { %"struct.std::_Optional_payload" }
%"struct.std::_Optional_payload" = type { %"struct.std::_Optional_payload.base", [7 x i8] }
%"struct.std::_Optional_payload.base" = type { %"struct.std::_Optional_payload_base.base" }
%"struct.std::_Optional_payload_base.base" = type <{ %"union.std::_Optional_payload_base<hermes::irgen::EnterBlockScope>::_Storage", i8 }>
%"union.std::_Optional_payload_base<hermes::irgen::EnterBlockScope>::_Storage" = type { %"class.hermes::irgen::EnterBlockScope" }
%"struct.llvh::SaveAndRestore" = type { ptr, ptr }
%"class.__gnu_cxx::__normal_iterator" = type { ptr }
%"struct.std::_Vector_base" = type { %"struct.std::_Vector_base<hermes::ESTree::ProgramNode *, std::allocator<hermes::ESTree::ProgramNode *>>::_Vector_impl" }
%"struct.std::_Vector_base<hermes::ESTree::ProgramNode *, std::allocator<hermes::ESTree::ProgramNode *>>::_Vector_impl" = type { %"struct.std::_Vector_base<hermes::ESTree::ProgramNode *, std::allocator<hermes::ESTree::ProgramNode *>>::_Vector_impl_data" }
%"struct.std::_Vector_base<hermes::ESTree::ProgramNode *, std::allocator<hermes::ESTree::ProgramNode *>>::_Vector_impl_data" = type { ptr, ptr, ptr }

@.str.5 = private unnamed_addr constant [11 x i8] c"cjs_module\00", align 1

; Function Attrs: mustprogress nounwind uwtable
define linkonce_odr hidden noundef nonnull align 8 dereferenceable(8) ptr @_ZNK9__gnu_cxx17__normal_iteratorIPKPN6hermes6ESTree11ProgramNodeESt6vectorIS4_SaIS4_EEE4baseEv(ptr noundef nonnull align 8 dereferenceable(8) %this) #0 comdat align 2 {
entry:
  %this.addr = alloca ptr, align 8
  store ptr %this, ptr %this.addr, align 8
  %this1 = load ptr, ptr %this.addr, align 8
  %_M_current = getelementptr inbounds %"class.__gnu_cxx::__normal_iterator", ptr %this1, i32 0, i32 0
  ret ptr %_M_current
}

; Function Attrs: mustprogress nounwind uwtable
define linkonce_odr hidden void @_ZN9__gnu_cxx17__normal_iteratorIPKPN6hermes6ESTree11ProgramNodeESt6vectorIS4_SaIS4_EEEC2ERKS6_(ptr noundef nonnull align 8 dereferenceable(8) %this, ptr noundef nonnull align 8 dereferenceable(8) %__i) unnamed_addr #0 comdat align 2 {
entry:
  %this.addr = alloca ptr, align 8
  %__i.addr = alloca ptr, align 8
  store ptr %this, ptr %this.addr, align 8
  store ptr %__i, ptr %__i.addr, align 8
  %this1 = load ptr, ptr %this.addr, align 8
  %_M_current = getelementptr inbounds %"class.__gnu_cxx::__normal_iterator", ptr %this1, i32 0, i32 0
  %0 = load ptr, ptr %__i.addr, align 8
  %1 = load ptr, ptr %0, align 8
  store ptr %1, ptr %_M_current, align 8
  ret void
}

; Function Attrs: mustprogress nounwind uwtable
define linkonce_odr hidden noundef ptr @_ZN4llvh16cast_convert_valIN6hermes6ESTree22FunctionExpressionNodeEPNS2_4NodeES5_E4doitERKS5_(ptr noundef nonnull align 8 dereferenceable(8) %Val) #0 comdat align 2 {
entry:
  %Val.addr = alloca ptr, align 8
  %Res2 = alloca ptr, align 8
  store ptr %Val, ptr %Val.addr, align 8
  %0 = load ptr, ptr %Val.addr, align 8
  %1 = load ptr, ptr %0, align 8
  store ptr %1, ptr %Res2, align 8
  %2 = load ptr, ptr %Res2, align 8
  ret ptr %2
}

; Function Attrs: mustprogress nounwind uwtable
define linkonce_odr hidden void @_ZN4llvh14SaveAndRestoreIPN6hermes5irgen15FunctionContextEED2Ev(ptr noundef nonnull align 8 dereferenceable(16) %this) unnamed_addr #0 comdat align 2 {
entry:
  %this.addr = alloca ptr, align 8
  store ptr %this, ptr %this.addr, align 8
  %this1 = load ptr, ptr %this.addr, align 8
  %OldValue = getelementptr inbounds %"struct.llvh::SaveAndRestore", ptr %this1, i32 0, i32 1
  %0 = load ptr, ptr %OldValue, align 8
  %X = getelementptr inbounds %"struct.llvh::SaveAndRestore", ptr %this1, i32 0, i32 0
  %1 = load ptr, ptr %X, align 8
  store ptr %0, ptr %1, align 8
  ret void
}

; Function Attrs: mustprogress nounwind uwtable
define linkonce_odr hidden noundef ptr @_ZN6hermes9IRBuilder9getModuleEv(ptr noundef nonnull align 8 dereferenceable(40) %this) #0 comdat align 2 {
entry:
  %this.addr = alloca ptr, align 8
  store ptr %this, ptr %this.addr, align 8
  %this1 = load ptr, ptr %this.addr, align 8
  %M = getelementptr inbounds %"class.hermes::IRBuilder", ptr %this1, i32 0, i32 0
  %0 = load ptr, ptr %M, align 8
  ret ptr %0
}

; Function Attrs: mustprogress nounwind uwtable
define linkonce_odr hidden noundef nonnull align 8 dereferenceable(8) ptr @_ZN9__gnu_cxx17__normal_iteratorIPKPN6hermes6ESTree11ProgramNodeESt6vectorIS4_SaIS4_EEEppEv(ptr noundef nonnull align 8 dereferenceable(8) %this) #0 comdat align 2 {
entry:
  %this.addr = alloca ptr, align 8
  store ptr %this, ptr %this.addr, align 8
  %this1 = load ptr, ptr %this.addr, align 8
  %_M_current = getelementptr inbounds %"class.__gnu_cxx::__normal_iterator", ptr %this1, i32 0, i32 0
  %0 = load ptr, ptr %_M_current, align 8
  %incdec.ptr = getelementptr inbounds ptr, ptr %0, i32 1
  store ptr %incdec.ptr, ptr %_M_current, align 8
  ret ptr %this1
}

; Function Attrs: mustprogress nounwind uwtable
define linkonce_odr hidden noundef nonnull align 8 dereferenceable(8) ptr @_ZNK9__gnu_cxx17__normal_iteratorIPKPN6hermes6ESTree11ProgramNodeESt6vectorIS4_SaIS4_EEEdeEv(ptr noundef nonnull align 8 dereferenceable(8) %this) #0 comdat align 2 {
entry:
  %this.addr = alloca ptr, align 8
  store ptr %this, ptr %this.addr, align 8
  %this1 = load ptr, ptr %this.addr, align 8
  %_M_current = getelementptr inbounds %"class.__gnu_cxx::__normal_iterator", ptr %this1, i32 0, i32 0
  %0 = load ptr, ptr %_M_current, align 8
  ret ptr %0
}

; Function Attrs: mustprogress nounwind uwtable
define linkonce_odr hidden noundef zeroext i1 @_ZN9__gnu_cxxneIPKPN6hermes6ESTree11ProgramNodeESt6vectorIS4_SaIS4_EEEEbRKNS_17__normal_iteratorIT_T0_EESF_(ptr noundef nonnull align 8 dereferenceable(8) %__lhs, ptr noundef nonnull align 8 dereferenceable(8) %__rhs) #0 comdat {
entry:
  %__lhs.addr = alloca ptr, align 8
  %__rhs.addr = alloca ptr, align 8
  store ptr %__lhs, ptr %__lhs.addr, align 8
  store ptr %__rhs, ptr %__rhs.addr, align 8
  %0 = load ptr, ptr %__lhs.addr, align 8
  %call = call noundef nonnull align 8 dereferenceable(8) ptr @_ZNK9__gnu_cxx17__normal_iteratorIPKPN6hermes6ESTree11ProgramNodeESt6vectorIS4_SaIS4_EEE4baseEv(ptr noundef nonnull align 8 dereferenceable(8) %0) #10
  %1 = load ptr, ptr %call, align 8
  %2 = load ptr, ptr %__rhs.addr, align 8
  %call1 = call noundef nonnull align 8 dereferenceable(8) ptr @_ZNK9__gnu_cxx17__normal_iteratorIPKPN6hermes6ESTree11ProgramNodeESt6vectorIS4_SaIS4_EEE4baseEv(ptr noundef nonnull align 8 dereferenceable(8) %2) #10
  %3 = load ptr, ptr %call1, align 8
  %cmp = icmp ne ptr %1, %3
  ret i1 %cmp
}

; Function Attrs: mustprogress nounwind uwtable
define linkonce_odr hidden ptr @_ZNKSt6vectorIPN6hermes6ESTree11ProgramNodeESaIS3_EE3endEv(ptr noundef nonnull align 8 dereferenceable(24) %this) #0 comdat align 2 {
entry:
  %retval = alloca %"class.__gnu_cxx::__normal_iterator", align 8
  %this.addr = alloca ptr, align 8
  store ptr %this, ptr %this.addr, align 8
  %this1 = load ptr, ptr %this.addr, align 8
  %_M_impl = getelementptr inbounds %"struct.std::_Vector_base", ptr %this1, i32 0, i32 0
  %_M_finish = getelementptr inbounds %"struct.std::_Vector_base<hermes::ESTree::ProgramNode *, std::allocator<hermes::ESTree::ProgramNode *>>::_Vector_impl_data", ptr %_M_impl, i32 0, i32 1
  call void @_ZN9__gnu_cxx17__normal_iteratorIPKPN6hermes6ESTree11ProgramNodeESt6vectorIS4_SaIS4_EEEC2ERKS6_(ptr noundef nonnull align 8 dereferenceable(8) %retval, ptr noundef nonnull align 8 dereferenceable(8) %_M_finish) #10
  %coerce.dive = getelementptr inbounds %"class.__gnu_cxx::__normal_iterator", ptr %retval, i32 0, i32 0
  %0 = load ptr, ptr %coerce.dive, align 8
  ret ptr %0
}

; Function Attrs: mustprogress nounwind uwtable
define linkonce_odr hidden ptr @_ZNKSt6vectorIPN6hermes6ESTree11ProgramNodeESaIS3_EE5beginEv(ptr noundef nonnull align 8 dereferenceable(24) %this) #0 comdat align 2 {
entry:
  %retval = alloca %"class.__gnu_cxx::__normal_iterator", align 8
  %this.addr = alloca ptr, align 8
  store ptr %this, ptr %this.addr, align 8
  %this1 = load ptr, ptr %this.addr, align 8
  %_M_impl = getelementptr inbounds %"struct.std::_Vector_base", ptr %this1, i32 0, i32 0
  %_M_start = getelementptr inbounds %"struct.std::_Vector_base<hermes::ESTree::ProgramNode *, std::allocator<hermes::ESTree::ProgramNode *>>::_Vector_impl_data", ptr %_M_impl, i32 0, i32 0
  call void @_ZN9__gnu_cxx17__normal_iteratorIPKPN6hermes6ESTree11ProgramNodeESt6vectorIS4_SaIS4_EEEC2ERKS6_(ptr noundef nonnull align 8 dereferenceable(8) %retval, ptr noundef nonnull align 8 dereferenceable(8) %_M_start) #10
  %coerce.dive = getelementptr inbounds %"class.__gnu_cxx::__normal_iterator", ptr %retval, i32 0, i32 0
  %0 = load ptr, ptr %coerce.dive, align 8
  ret ptr %0
}

; Function Attrs: mustprogress nounwind uwtable
define linkonce_odr hidden void @_ZN4llvh14SaveAndRestoreIPN6hermes5irgen15FunctionContextEEC2ERS4_RKS4_(ptr noundef nonnull align 8 dereferenceable(16) %this, ptr noundef nonnull align 8 dereferenceable(8) %X, ptr noundef nonnull align 8 dereferenceable(8) %NewValue) unnamed_addr #0 comdat align 2 {
entry:
  %this.addr = alloca ptr, align 8
  %X.addr = alloca ptr, align 8
  %NewValue.addr = alloca ptr, align 8
  store ptr %this, ptr %this.addr, align 8
  store ptr %X, ptr %X.addr, align 8
  store ptr %NewValue, ptr %NewValue.addr, align 8
  %this1 = load ptr, ptr %this.addr, align 8
  %X2 = getelementptr inbounds %"struct.llvh::SaveAndRestore", ptr %this1, i32 0, i32 0
  %0 = load ptr, ptr %X.addr, align 8
  store ptr %0, ptr %X2, align 8
  %OldValue = getelementptr inbounds %"struct.llvh::SaveAndRestore", ptr %this1, i32 0, i32 1
  %1 = load ptr, ptr %X.addr, align 8
  %2 = load ptr, ptr %1, align 8
  store ptr %2, ptr %OldValue, align 8
  %3 = load ptr, ptr %NewValue.addr, align 8
  %4 = load ptr, ptr %3, align 8
  %5 = load ptr, ptr %X.addr, align 8
  store ptr %4, ptr %5, align 8
  ret void
}

; Function Attrs: mustprogress nounwind uwtable
define linkonce_odr hidden noundef ptr @_ZN4llvh4castIN6hermes6ESTree22FunctionExpressionNodeENS2_4NodeEEENS_10cast_rettyIT_PT0_E8ret_typeES8_(ptr noundef %Val) #0 comdat {
entry:
  %Val.addr = alloca ptr, align 8
  store ptr %Val, ptr %Val.addr, align 8
  %call = call noundef ptr @_ZN4llvh16cast_convert_valIN6hermes6ESTree22FunctionExpressionNodeEPNS2_4NodeES5_E4doitERKS5_(ptr noundef nonnull align 8 dereferenceable(8) %Val.addr)
  ret ptr %call
}

; Function Attrs: mustprogress nounwind uwtable
define hidden void @_ZN6hermes5irgen11ESTreeIRGen11doCJSModuleEPNS_8FunctionEPNS_3sem12FunctionInfoEjjN4llvh9StringRefE(ptr noundef nonnull align 8 dereferenceable(200) %this, ptr noundef %topLevelFunction, ptr noundef %semInfo, i32 noundef %segmentID, i32 noundef %id, ptr noundef byval(%"class.llvh::StringRef") align 8 %filename) #0 align 2 {
entry:
  %this.addr.i = alloca ptr, align 8
  %Str.addr.i = alloca ptr, align 8
  %this.addr = alloca ptr, align 8
  %topLevelFunction.addr = alloca ptr, align 8
  %semInfo.addr = alloca ptr, align 8
  %segmentID.addr = alloca i32, align 4
  %id.addr = alloca i32, align 4
  %func = alloca ptr, align 8
  %topLevelFunctionContext = alloca %"class.hermes::irgen::FunctionContext", align 8
  %saveTopLevelContext = alloca %"struct.llvh::SaveAndRestore", align 8
  %ref.tmp = alloca ptr, align 8
  %__range2 = alloca ptr, align 8
  %__begin2 = alloca %"class.__gnu_cxx::__normal_iterator", align 8
  %__end2 = alloca %"class.__gnu_cxx::__normal_iterator", align 8
  %declFile = alloca ptr, align 8
  %functionName = alloca %"class.hermes::Identifier", align 8
  %agg.tmp = alloca %"class.llvh::StringRef", align 8
  %newFunc = alloca ptr, align 8
  %agg.tmp10 = alloca %"class.hermes::Identifier", align 8
  %agg.tmp15 = alloca %"class.hermes::Identifier", align 8
  %agg.tmp17 = alloca %"class.llvh::StringRef", align 8
  store ptr %this, ptr %this.addr, align 8
  store ptr %topLevelFunction, ptr %topLevelFunction.addr, align 8
  store ptr %semInfo, ptr %semInfo.addr, align 8
  store i32 %segmentID, ptr %segmentID.addr, align 4
  store i32 %id, ptr %id.addr, align 4
  %this1 = load ptr, ptr %this.addr, align 8
  %Root = getelementptr inbounds %"class.hermes::irgen::ESTreeIRGen", ptr %this1, i32 0, i32 3
  %0 = load ptr, ptr %Root, align 8
  %call = call noundef ptr @_ZN4llvh4castIN6hermes6ESTree22FunctionExpressionNodeENS2_4NodeEEENS_10cast_rettyIT_PT0_E8ret_typeES8_(ptr noundef %0)
  store ptr %call, ptr %func, align 8
  %1 = load ptr, ptr %topLevelFunction.addr, align 8
  %2 = load ptr, ptr %semInfo.addr, align 8
  call void @_ZN6hermes5irgen15FunctionContextC1EPNS0_11ESTreeIRGenEPNS_8FunctionEPNS_3sem12FunctionInfoE(ptr noundef nonnull align 8 dereferenceable(480) %topLevelFunctionContext, ptr noundef %this1, ptr noundef %1, ptr noundef %2)
  %topLevelContext = getelementptr inbounds %"class.hermes::irgen::ESTreeIRGen", ptr %this1, i32 0, i32 5
  store ptr %topLevelFunctionContext, ptr %ref.tmp, align 8
  call void @_ZN4llvh14SaveAndRestoreIPN6hermes5irgen15FunctionContextEEC2ERS4_RKS4_(ptr noundef nonnull align 8 dereferenceable(16) %saveTopLevelContext, ptr noundef nonnull align 8 dereferenceable(8) %topLevelContext, ptr noundef nonnull align 8 dereferenceable(8) %ref.tmp)
  %DeclarationFileList = getelementptr inbounds %"class.hermes::irgen::ESTreeIRGen", ptr %this1, i32 0, i32 4
  %3 = load ptr, ptr %DeclarationFileList, align 8
  store ptr %3, ptr %__range2, align 8
  %4 = load ptr, ptr %__range2, align 8
  %call2 = call ptr @_ZNKSt6vectorIPN6hermes6ESTree11ProgramNodeESaIS3_EE5beginEv(ptr noundef nonnull align 8 dereferenceable(24) %4) #10
  %coerce.dive = getelementptr inbounds %"class.__gnu_cxx::__normal_iterator", ptr %__begin2, i32 0, i32 0
  store ptr %call2, ptr %coerce.dive, align 8
  %5 = load ptr, ptr %__range2, align 8
  %call3 = call ptr @_ZNKSt6vectorIPN6hermes6ESTree11ProgramNodeESaIS3_EE3endEv(ptr noundef nonnull align 8 dereferenceable(24) %5) #10
  %coerce.dive4 = getelementptr inbounds %"class.__gnu_cxx::__normal_iterator", ptr %__end2, i32 0, i32 0
  store ptr %call3, ptr %coerce.dive4, align 8
  br label %for.cond

for.cond:                                         ; preds = %for.inc, %entry
  %call5 = call noundef zeroext i1 @_ZN9__gnu_cxxneIPKPN6hermes6ESTree11ProgramNodeESt6vectorIS4_SaIS4_EEEEbRKNS_17__normal_iteratorIT_T0_EESF_(ptr noundef nonnull align 8 dereferenceable(8) %__begin2, ptr noundef nonnull align 8 dereferenceable(8) %__end2) #10
  br i1 %call5, label %for.body, label %for.end

for.body:                                         ; preds = %for.cond
  %call6 = call noundef nonnull align 8 dereferenceable(8) ptr @_ZNK9__gnu_cxx17__normal_iteratorIPKPN6hermes6ESTree11ProgramNodeESt6vectorIS4_SaIS4_EEEdeEv(ptr noundef nonnull align 8 dereferenceable(8) %__begin2) #10
  %6 = load ptr, ptr %call6, align 8
  store ptr %6, ptr %declFile, align 8
  %7 = load ptr, ptr %declFile, align 8
  call void @_ZN6hermes5irgen11ESTreeIRGen22processDeclarationFileEPNS_6ESTree11ProgramNodeE(ptr noundef nonnull align 8 dereferenceable(200) %this1, ptr noundef %7)
  br label %for.inc

for.inc:                                          ; preds = %for.body
  %call7 = call noundef nonnull align 8 dereferenceable(8) ptr @_ZN9__gnu_cxx17__normal_iteratorIPKPN6hermes6ESTree11ProgramNodeESt6vectorIS4_SaIS4_EEEppEv(ptr noundef nonnull align 8 dereferenceable(8) %__begin2) #10
  br label %for.cond

for.end:                                          ; preds = %for.cond
  %Builder = getelementptr inbounds %"class.hermes::irgen::ESTreeIRGen", ptr %this1, i32 0, i32 1
  store ptr %agg.tmp, ptr %this.addr.i, align 8
  store ptr @.str.5, ptr %Str.addr.i, align 8
  %this1.i = load ptr, ptr %this.addr.i, align 8
  %8 = load ptr, ptr %Str.addr.i, align 8
  store ptr %8, ptr %this1.i, align 8
  %Length.i = getelementptr inbounds %"class.llvh::StringRef", ptr %this1.i, i32 0, i32 1
  %9 = load ptr, ptr %Str.addr.i, align 8
  %tobool.i = icmp ne ptr %9, null
  br i1 %tobool.i, label %cond.true.i, label %cond.false.i

cond.true.i:                                      ; preds = %for.end
  %10 = load ptr, ptr %Str.addr.i, align 8
  %call.i = call i64 @strlen(ptr noundef %10) #11
  br label %_ZN4llvh9StringRefC2EPKc.exit

cond.false.i:                                     ; preds = %for.end
  br label %_ZN4llvh9StringRefC2EPKc.exit

_ZN4llvh9StringRefC2EPKc.exit:                    ; preds = %cond.false.i, %cond.true.i
  %cond.i = phi i64 [ %call.i, %cond.true.i ], [ 0, %cond.false.i ]
  store i64 %cond.i, ptr %Length.i, align 8
  %11 = getelementptr inbounds { ptr, i64 }, ptr %agg.tmp, i32 0, i32 0
  %12 = load ptr, ptr %11, align 8
  %13 = getelementptr inbounds { ptr, i64 }, ptr %agg.tmp, i32 0, i32 1
  %14 = load i64, ptr %13, align 8
  %call8 = call ptr @_ZN6hermes9IRBuilder16createIdentifierEN4llvh9StringRefE(ptr noundef nonnull align 8 dereferenceable(40) %Builder, ptr %12, i64 %14)
  %coerce.dive9 = getelementptr inbounds %"class.hermes::Identifier", ptr %functionName, i32 0, i32 0
  store ptr %call8, ptr %coerce.dive9, align 8
  call void @llvm.memcpy.p0.p0.i64(ptr align 8 %agg.tmp10, ptr align 8 %functionName, i64 8, i1 false)
  %15 = load ptr, ptr %func, align 8
  %coerce.dive11 = getelementptr inbounds %"class.hermes::Identifier", ptr %agg.tmp10, i32 0, i32 0
  %16 = load ptr, ptr %coerce.dive11, align 8
  %call12 = call noundef ptr @_ZN6hermes5irgen11ESTreeIRGen14genES5FunctionENS_10IdentifierEPNS_8VariableEPNS_6ESTree16FunctionLikeNodeEb(ptr noundef nonnull align 8 dereferenceable(200) %this1, ptr %16, ptr noundef null, ptr noundef %15, i1 noundef zeroext false)
  store ptr %call12, ptr %newFunc, align 8
  %Builder13 = getelementptr inbounds %"class.hermes::irgen::ESTreeIRGen", ptr %this1, i32 0, i32 1
  %call14 = call noundef ptr @_ZN6hermes9IRBuilder9getModuleEv(ptr noundef nonnull align 8 dereferenceable(40) %Builder13)
  %17 = load i32, ptr %segmentID.addr, align 4
  %18 = load i32, ptr %id.addr, align 4
  %Builder16 = getelementptr inbounds %"class.hermes::irgen::ESTreeIRGen", ptr %this1, i32 0, i32 1
  call void @llvm.memcpy.p0.p0.i64(ptr align 8 %agg.tmp17, ptr align 8 %filename, i64 16, i1 false)
  %19 = getelementptr inbounds { ptr, i64 }, ptr %agg.tmp17, i32 0, i32 0
  %20 = load ptr, ptr %19, align 8
  %21 = getelementptr inbounds { ptr, i64 }, ptr %agg.tmp17, i32 0, i32 1
  %22 = load i64, ptr %21, align 8
  %call18 = call ptr @_ZN6hermes9IRBuilder16createIdentifierEN4llvh9StringRefE(ptr noundef nonnull align 8 dereferenceable(40) %Builder16, ptr %20, i64 %22)
  %coerce.dive19 = getelementptr inbounds %"class.hermes::Identifier", ptr %agg.tmp15, i32 0, i32 0
  store ptr %call18, ptr %coerce.dive19, align 8
  %23 = load ptr, ptr %newFunc, align 8
  %coerce.dive20 = getelementptr inbounds %"class.hermes::Identifier", ptr %agg.tmp15, i32 0, i32 0
  %24 = load ptr, ptr %coerce.dive20, align 8
  call void @_ZN6hermes6Module12addCJSModuleEjjNS_10IdentifierEPNS_8FunctionE(ptr noundef nonnull align 8 dereferenceable(1033) %call14, i32 noundef %17, i32 noundef %18, ptr %24, ptr noundef %23)
  call void @_ZN4llvh14SaveAndRestoreIPN6hermes5irgen15FunctionContextEED2Ev(ptr noundef nonnull align 8 dereferenceable(16) %saveTopLevelContext) #10
  call void @_ZN6hermes5irgen15FunctionContextD1Ev(ptr noundef nonnull align 8 dereferenceable(480) %topLevelFunctionContext) #10
  ret void
}