; Function Attrs: mustprogress nounwind uwtable
define hidden void @_ZN6hermes5irgen11ESTreeIRGen11doCJSModuleEPNS_8FunctionEPNS_3sem12FunctionInfoEjjN4llvh9StringRefE(ptr noundef nonnull align 8 dereferenceable(200) %this, ptr noundef %topLevelFunction, ptr noundef %semInfo, i32 noundef %segmentID, i32 noundef %id, ptr nocapture noundef readonly byval(%"class.llvh::StringRef") align 8 %filename) local_unnamed_addr #0 align 2 {
entry:
  %topLevelFunctionContext = alloca %"class.hermes::irgen::FunctionContext", align 8
  %Root = getelementptr inbounds i8, ptr %this, i64 56
  %0 = load ptr, ptr %Root, align 8
  call void @_ZN6hermes5irgen15FunctionContextC1EPNS0_11ESTreeIRGenEPNS_8FunctionEPNS_3sem12FunctionInfoE(ptr noundef nonnull align 8 dereferenceable(480) %topLevelFunctionContext, ptr noundef nonnull %this, ptr noundef %topLevelFunction, ptr noundef %semInfo) #15
  %topLevelContext = getelementptr inbounds i8, ptr %this, i64 72
  %1 = load ptr, ptr %topLevelContext, align 8
  store ptr %topLevelFunctionContext, ptr %topLevelContext, align 8
  %DeclarationFileList = getelementptr inbounds i8, ptr %this, i64 64
  %2 = load ptr, ptr %DeclarationFileList, align 8
  %3 = load ptr, ptr %2, align 8
  %_M_finish.i = getelementptr inbounds i8, ptr %2, i64 8
  %4 = load ptr, ptr %_M_finish.i, align 8
  %cmp.i.not7 = icmp eq ptr %3, %4
  br i1 %cmp.i.not7, label %_ZN4llvh9StringRefC2EPKc.exit, label %for.body

for.body:                                         ; preds = %entry, %for.body
  %__begin2.sroa.0.08 = phi ptr [ %incdec.ptr.i, %for.body ], [ %3, %entry ]
  %5 = load ptr, ptr %__begin2.sroa.0.08, align 8
  call void @_ZN6hermes5irgen11ESTreeIRGen22processDeclarationFileEPNS_6ESTree11ProgramNodeE(ptr noundef nonnull align 8 dereferenceable(200) %this, ptr noundef %5)
  %incdec.ptr.i = getelementptr inbounds i8, ptr %__begin2.sroa.0.08, i64 8
  %cmp.i.not = icmp eq ptr %incdec.ptr.i, %4
  br i1 %cmp.i.not, label %_ZN4llvh9StringRefC2EPKc.exit, label %for.body

_ZN4llvh9StringRefC2EPKc.exit:                    ; preds = %for.body, %entry
  %Builder = getelementptr inbounds i8, ptr %this, i64 8
  %call8 = call ptr @_ZN6hermes9IRBuilder16createIdentifierEN4llvh9StringRefE(ptr noundef nonnull align 8 dereferenceable(40) %Builder, ptr nonnull @.str.5, i64 10) #15
  %call12 = call noundef ptr @_ZN6hermes5irgen11ESTreeIRGen14genES5FunctionENS_10IdentifierEPNS_8VariableEPNS_6ESTree16FunctionLikeNodeEb(ptr noundef nonnull align 8 dereferenceable(200) %this, ptr %call8, ptr noundef null, ptr noundef %0, i1 noundef zeroext false) #15
  %6 = load ptr, ptr %Builder, align 8
  %agg.tmp17.sroa.0.0.copyload = load ptr, ptr %filename, align 8
  %agg.tmp17.sroa.2.0.filename.sroa_idx = getelementptr inbounds i8, ptr %filename, i64 8
  %agg.tmp17.sroa.2.0.copyload = load i64, ptr %agg.tmp17.sroa.2.0.filename.sroa_idx, align 8
  %call18 = call ptr @_ZN6hermes9IRBuilder16createIdentifierEN4llvh9StringRefE(ptr noundef nonnull align 8 dereferenceable(40) %Builder, ptr %agg.tmp17.sroa.0.0.copyload, i64 %agg.tmp17.sroa.2.0.copyload) #15
  call void @_ZN6hermes6Module12addCJSModuleEjjNS_10IdentifierEPNS_8FunctionE(ptr noundef nonnull align 8 dereferenceable(1033) %6, i32 noundef %segmentID, i32 noundef %id, ptr %call18, ptr noundef %call12)
  store ptr %1, ptr %topLevelContext, align 8
  call void @_ZN6hermes5irgen15FunctionContextD1Ev(ptr noundef nonnull align 8 dereferenceable(480) %topLevelFunctionContext) #15
  ret void
}